target datalayout = "e-m:e-p270:32:32-p271:32:32-p272:64:64-i64:64-i128:128-f80:128-n8:16:32:64-S128"
target triple = "x86_64-pc-linux-gnu"

%"class.std::locale" = type { ptr }
%"class.std::ios_base" = type { ptr, i64, i64, i32, i32, i32, ptr, %"struct.std::ios_base::_Words", [8 x %"struct.std::ios_base::_Words"], i32, ptr, %"class.std::locale" }
%"struct.std::ios_base::_Words" = type { ptr, i64 }
%"struct.std::_Setprecision" = type { i32 }

@.str.25 = private unnamed_addr constant [2 x i8] c"C\00", align 1

; Function Attrs: mustprogress nounwind uwtable
define linkonce_odr hidden noundef i64 @_ZNSt8ios_base9precisionEl(ptr noundef nonnull align 8 dereferenceable(216) %0, i64 noundef %1) #5 comdat align 2 {
  %3 = alloca ptr, align 8
  %4 = alloca i64, align 8
  %5 = alloca i64, align 8
  store ptr %0, ptr %3, align 8, !tbaa !145
  store i64 %1, ptr %4, align 8, !tbaa !14
  %6 = load ptr, ptr %3, align 8
  call void @llvm.lifetime.start.p0(i64 8, ptr %5) #3
  %7 = getelementptr inbounds nuw %"class.std::ios_base", ptr %6, i32 0, i32 1
  %8 = load i64, ptr %7, align 8, !tbaa !290
  store i64 %8, ptr %5, align 8, !tbaa !14
  %9 = load i64, ptr %4, align 8, !tbaa !14
  %10 = getelementptr inbounds nuw %"class.std::ios_base", ptr %6, i32 0, i32 1
  store i64 %9, ptr %10, align 8, !tbaa !290
  %11 = load i64, ptr %5, align 8, !tbaa !14
  call void @llvm.lifetime.end.p0(i64 8, ptr %5) #3
  ret i64 %11
}

; Function Attrs: inlinehint mustprogress uwtable
define available_externally noundef nonnull align 8 dereferenceable(8) ptr @_ZStlsIcSt11char_traitsIcEERSt13basic_ostreamIT_T0_ES6_St13_Setprecision(ptr noundef nonnull align 8 dereferenceable(8) %0, i32 %1) #7 {
  %3 = alloca %"struct.std::_Setprecision", align 4
  %4 = alloca ptr, align 8
  %5 = getelementptr inbounds nuw %"struct.std::_Setprecision", ptr %3, i32 0, i32 0
  store i32 %1, ptr %5, align 4
  store ptr %0, ptr %4, align 8, !tbaa !124
  %6 = load ptr, ptr %4, align 8, !tbaa !124
  %7 = load ptr, ptr %6, align 8, !tbaa !24
  %8 = getelementptr i8, ptr %7, i64 -24
  %9 = load i64, ptr %8, align 8
  %10 = getelementptr inbounds i8, ptr %6, i64 %9
  %11 = getelementptr inbounds nuw %"struct.std::_Setprecision", ptr %3, i32 0, i32 0
  %12 = load i32, ptr %11, align 4, !tbaa !147
  %13 = sext i32 %12 to i64
  %14 = call noundef i64 @_ZNSt8ios_base9precisionEl(ptr noundef nonnull align 8 dereferenceable(216) %10, i64 noundef %13)
  %15 = load ptr, ptr %4, align 8, !tbaa !124
  ret ptr %15
}

; Function Attrs: inlinehint mustprogress nounwind uwtable
define linkonce_odr i32 @_ZSt12setprecisioni(i32 noundef %0) #8 comdat {
  %2 = alloca %"struct.std::_Setprecision", align 4
  %3 = alloca i32, align 4
  store i32 %0, ptr %3, align 4, !tbaa !31
  %4 = getelementptr inbounds nuw %"struct.std::_Setprecision", ptr %2, i32 0, i32 0
  %5 = load i32, ptr %3, align 4, !tbaa !31
  store i32 %5, ptr %4, align 4, !tbaa !147
  %6 = getelementptr inbounds nuw %"struct.std::_Setprecision", ptr %2, i32 0, i32 0
  %7 = load i32, ptr %6, align 4
  ret i32 %7
}

; Function Attrs: mustprogress uwtable
define available_externally noundef nonnull align 8 dereferenceable(8) ptr @_ZNSolsEPFRSt8ios_baseS0_E(ptr noundef nonnull align 8 dereferenceable(8) %0, ptr noundef %1) #4 align 2 {
  %3 = alloca ptr, align 8
  %4 = alloca ptr, align 8
  store ptr %0, ptr %3, align 8, !tbaa !124
  store ptr %1, ptr %4, align 8, !tbaa !144
  %5 = load ptr, ptr %3, align 8
  %6 = load ptr, ptr %4, align 8, !tbaa !144
  %7 = load ptr, ptr %5, align 8, !tbaa !24
  %8 = getelementptr i8, ptr %7, i64 -24
  %9 = load i64, ptr %8, align 8
  %10 = getelementptr inbounds i8, ptr %5, i64 %9
  %11 = call noundef nonnull align 8 dereferenceable(216) ptr %6(ptr noundef nonnull align 8 dereferenceable(216) %10)
  ret ptr %5
}

; Function Attrs: mustprogress uwtable
define void @_ZN6casadi16normalized_setupERSo(ptr noundef nonnull align 8 dereferenceable(8) %0) #4 personality ptr @__gxx_personality_v0 {
  %2 = alloca ptr, align 8
  %3 = alloca %"class.std::locale", align 8
  %4 = alloca %"class.std::locale", align 8
  %5 = alloca ptr, align 8
  %6 = alloca i32, align 4
  %7 = alloca %"struct.std::_Setprecision", align 4
  store ptr %0, ptr %2, align 8, !tbaa !124
  %8 = load ptr, ptr %2, align 8, !tbaa !124
  %9 = load ptr, ptr %8, align 8, !tbaa !24
  %10 = getelementptr i8, ptr %9, i64 -24
  %11 = load i64, ptr %10, align 8
  %12 = getelementptr inbounds i8, ptr %8, i64 %11
  call void @llvm.lifetime.start.p0(i64 8, ptr %4) #3
  call void @_ZNSt6localeC1EPKc(ptr noundef nonnull align 8 dereferenceable(8) %4, ptr noundef @.str.25)
  invoke void @_ZNSt9basic_iosIcSt11char_traitsIcEE5imbueERKSt6locale(ptr dead_on_unwind writable sret(%"class.std::locale") align 8 %3, ptr noundef nonnull align 8 dereferenceable(264) %12, ptr noundef nonnull align 8 dereferenceable(8) %4)
          to label %13 unwind label %22

13:                                               ; preds = %1
  call void @_ZNSt6localeD1Ev(ptr noundef nonnull align 8 dereferenceable(8) %3) #3
  call void @_ZNSt6localeD1Ev(ptr noundef nonnull align 8 dereferenceable(8) %4) #3
  call void @llvm.lifetime.end.p0(i64 8, ptr %4) #3
  %14 = load ptr, ptr %2, align 8, !tbaa !124
  %15 = call noundef nonnull align 8 dereferenceable(8) ptr @_ZNSolsEPFRSt8ios_baseS0_E(ptr noundef nonnull align 8 dereferenceable(8) %14, ptr noundef @_ZSt10scientificRSt8ios_base)
  %16 = load ptr, ptr %2, align 8, !tbaa !124
  %17 = call i32 @_ZSt12setprecisioni(i32 noundef 16)
  %18 = getelementptr inbounds nuw %"struct.std::_Setprecision", ptr %7, i32 0, i32 0
  store i32 %17, ptr %18, align 4
  %19 = getelementptr inbounds nuw %"struct.std::_Setprecision", ptr %7, i32 0, i32 0
  %20 = load i32, ptr %19, align 4
  %21 = call noundef nonnull align 8 dereferenceable(8) ptr @_ZStlsIcSt11char_traitsIcEERSt13basic_ostreamIT_T0_ES6_St13_Setprecision(ptr noundef nonnull align 8 dereferenceable(8) %16, i32 %20)
  ret void

22:                                               ; preds = %1
  %23 = landingpad { ptr, i32 }
          cleanup
  %24 = extractvalue { ptr, i32 } %23, 0
  store ptr %24, ptr %5, align 8
  %25 = extractvalue { ptr, i32 } %23, 1
  store i32 %25, ptr %6, align 4
  call void @_ZNSt6localeD1Ev(ptr noundef nonnull align 8 dereferenceable(8) %4) #3
  call void @llvm.lifetime.end.p0(i64 8, ptr %4) #3
  br label %26

26:                                               ; preds = %22
  %27 = load ptr, ptr %5, align 8
  %28 = load i32, ptr %6, align 4
  %29 = insertvalue { ptr, i32 } poison, ptr %27, 0
  %30 = insertvalue { ptr, i32 } %29, i32 %28, 1
  resume { ptr, i32 } %30
}