; Function Attrs: mustprogress uwtable
define void @_ZN6casadi16normalized_setupERSo(ptr noundef nonnull align 8 dereferenceable(8) %0) local_unnamed_addr #3 personality ptr @__gxx_personality_v0 {
  %2 = alloca %"class.std::locale", align 8
  %3 = alloca %"class.std::locale", align 8
  %4 = load ptr, ptr %0, align 8, !tbaa !23
  %5 = getelementptr i8, ptr %4, i64 -24
  %6 = load i64, ptr %5, align 8
  %7 = getelementptr inbounds i8, ptr %0, i64 %6
  call void @llvm.lifetime.start.p0(i64 8, ptr nonnull %3) #24
  call void @_ZNSt6localeC1EPKc(ptr noundef nonnull align 8 dereferenceable(8) %3, ptr noundef nonnull @.str.25)
  invoke void @_ZNSt9basic_iosIcSt11char_traitsIcEE5imbueERKSt6locale(ptr dead_on_unwind nonnull writable sret(%"class.std::locale") align 8 %2, ptr noundef nonnull align 8 dereferenceable(264) %7, ptr noundef nonnull align 8 dereferenceable(8) %3)
          to label %8 unwind label %20

8:                                                ; preds = %1
  call void @_ZNSt6localeD1Ev(ptr noundef nonnull align 8 dereferenceable(8) %2) #24
  call void @_ZNSt6localeD1Ev(ptr noundef nonnull align 8 dereferenceable(8) %3) #24
  call void @llvm.lifetime.end.p0(i64 8, ptr nonnull %3) #24
  %9 = load ptr, ptr %0, align 8, !tbaa !23
  %10 = getelementptr i8, ptr %9, i64 -24
  %11 = load i64, ptr %10, align 8
  %12 = getelementptr inbounds i8, ptr %0, i64 %11
  %13 = getelementptr inbounds nuw i8, ptr %12, i64 24
  %14 = load i32, ptr %13, align 8, !tbaa !156
  %15 = and i32 %14, -261
  %16 = or disjoint i32 %15, 256
  store i32 %16, ptr %13, align 4, !tbaa !163
  %17 = load i64, ptr %10, align 8
  %18 = getelementptr inbounds i8, ptr %0, i64 %17
  %19 = getelementptr inbounds nuw i8, ptr %18, i64 8
  store i64 16, ptr %19, align 8, !tbaa !164
  ret void

20:                                               ; preds = %1
  %21 = landingpad { ptr, i32 }
          cleanup
  call void @_ZNSt6localeD1Ev(ptr noundef nonnull align 8 dereferenceable(8) %3) #24
  call void @llvm.lifetime.end.p0(i64 8, ptr nonnull %3) #24
  resume { ptr, i32 } %21
}